target datalayout = "e-m:e-p270:32:32-p271:32:32-p272:64:64-i64:64-i128:128-f80:128-n8:16:32:64-S128"
target triple = "x86_64-pc-linux-gnu"

%"class.llvm::StringRef" = type { ptr, i64 }
%"class.std::error_code" = type { i32, ptr }
%"class.llvm::DenseMap" = type <{ ptr, i32, i32, i32, [4 x i8] }>
%"class.(anonymous namespace)::SDiagsMerger" = type { %"class.clang::serialized_diags::SerializedDiagnosticReader", ptr, %"class.llvm::DenseMap", %"class.llvm::DenseMap", %"class.llvm::DenseMap" }
%"class.clang::serialized_diags::SerializedDiagnosticReader" = type { ptr }
%"struct.llvm::detail::DenseMapPair" = type { %"struct.std::pair" }
%"struct.std::pair" = type { i32, i32 }

; Function Attrs: mustprogress nounwind uwtable
define linkonce_odr hidden noundef i32 @_ZN4llvm12DenseMapInfoIjvE12getHashValueERKj(ptr noundef nonnull align 4 dereferenceable(4) %0) #0 comdat align 2 {
  %2 = alloca ptr, align 8
  store ptr %0, ptr %2, align 8
  %3 = load ptr, ptr %2, align 8
  %4 = load i32, ptr %3, align 4
  %5 = mul i32 %4, 37
  ret i32 %5
}

; Function Attrs: mustprogress nounwind uwtable
define linkonce_odr hidden noundef i32 @_ZN4llvm12DenseMapInfoIjvE15getTombstoneKeyEv() #0 comdat align 2 {
  ret i32 -2
}

; Function Attrs: mustprogress nounwind uwtable
define linkonce_odr hidden noundef i32 @_ZN4llvm12DenseMapInfoIjvE11getEmptyKeyEv() #0 comdat align 2 {
  ret i32 -1
}

; Function Attrs: mustprogress nounwind uwtable
define linkonce_odr hidden noundef i32 @_ZNK4llvm8DenseMapIjjNS_12DenseMapInfoIjvEENS_6detail12DenseMapPairIjjEEE13getNumBucketsEv(ptr noundef nonnull align 8 dereferenceable(20) %0) #0 comdat align 2 {
  %2 = alloca ptr, align 8
  store ptr %0, ptr %2, align 8
  %3 = load ptr, ptr %2, align 8
  %4 = getelementptr inbounds nuw %"class.llvm::DenseMap", ptr %3, i32 0, i32 3
  %5 = load i32, ptr %4, align 8
  ret i32 %5
}

; Function Attrs: mustprogress nounwind uwtable
define linkonce_odr hidden noundef ptr @_ZNK4llvm8DenseMapIjjNS_12DenseMapInfoIjvEENS_6detail12DenseMapPairIjjEEE10getBucketsEv(ptr noundef nonnull align 8 dereferenceable(20) %0) #0 comdat align 2 {
  %2 = alloca ptr, align 8
  store ptr %0, ptr %2, align 8
  %3 = load ptr, ptr %2, align 8
  %4 = getelementptr inbounds nuw %"class.llvm::DenseMap", ptr %3, i32 0, i32 0
  %5 = load ptr, ptr %4, align 8
  ret ptr %5
}

; Function Attrs: mustprogress nounwind uwtable
define linkonce_odr hidden noundef zeroext i1 @_ZN4llvm12DenseMapInfoIjvE7isEqualERKjS3_(ptr noundef nonnull align 4 dereferenceable(4) %0, ptr noundef nonnull align 4 dereferenceable(4) %1) #0 comdat align 2 {
  %3 = alloca ptr, align 8
  %4 = alloca ptr, align 8
  store ptr %0, ptr %3, align 8
  store ptr %1, ptr %4, align 8
  %5 = load ptr, ptr %3, align 8
  %6 = load i32, ptr %5, align 4
  %7 = load ptr, ptr %4, align 8
  %8 = load i32, ptr %7, align 4
  %9 = icmp eq i32 %6, %8
  ret i1 %9
}

; Function Attrs: mustprogress nounwind uwtable
define linkonce_odr hidden noundef nonnull align 4 dereferenceable(4) ptr @_ZNK4llvm6detail12DenseMapPairIjjE8getFirstEv(ptr noundef nonnull align 4 dereferenceable(8) %0) #0 comdat align 2 {
  %2 = alloca ptr, align 8
  store ptr %0, ptr %2, align 8
  %3 = load ptr, ptr %2, align 8
  %4 = getelementptr inbounds nuw %"struct.std::pair", ptr %3, i32 0, i32 0
  ret ptr %4
}

; Function Attrs: mustprogress nounwind uwtable
define linkonce_odr hidden noundef i32 @_ZN4llvm12DenseMapBaseINS_8DenseMapIjjNS_12DenseMapInfoIjvEENS_6detail12DenseMapPairIjjEEEEjjS3_S6_E12getHashValueERKj(ptr noundef nonnull align 4 dereferenceable(4) %0) #0 comdat align 2 {
  %2 = alloca ptr, align 8
  store ptr %0, ptr %2, align 8
  %3 = load ptr, ptr %2, align 8
  %4 = call noundef i32 @_ZN4llvm12DenseMapInfoIjvE12getHashValueERKj(ptr noundef nonnull align 4 dereferenceable(4) %3)
  ret i32 %4
}

; Function Attrs: mustprogress nounwind uwtable
define linkonce_odr hidden noundef i32 @_ZN4llvm12DenseMapBaseINS_8DenseMapIjjNS_12DenseMapInfoIjvEENS_6detail12DenseMapPairIjjEEEEjjS3_S6_E15getTombstoneKeyEv() #0 comdat align 2 {
  %1 = call noundef i32 @_ZN4llvm12DenseMapInfoIjvE15getTombstoneKeyEv()
  ret i32 %1
}

; Function Attrs: mustprogress nounwind uwtable
define linkonce_odr hidden noundef i32 @_ZN4llvm12DenseMapBaseINS_8DenseMapIjjNS_12DenseMapInfoIjvEENS_6detail12DenseMapPairIjjEEEEjjS3_S6_E11getEmptyKeyEv() #0 comdat align 2 {
  %1 = call noundef i32 @_ZN4llvm12DenseMapInfoIjvE11getEmptyKeyEv()
  ret i32 %1
}

; Function Attrs: mustprogress nounwind uwtable
define linkonce_odr hidden noundef i32 @_ZNK4llvm12DenseMapBaseINS_8DenseMapIjjNS_12DenseMapInfoIjvEENS_6detail12DenseMapPairIjjEEEEjjS3_S6_E13getNumBucketsEv(ptr noundef nonnull align 1 dereferenceable(1) %0) #0 comdat align 2 {
  %2 = alloca ptr, align 8
  store ptr %0, ptr %2, align 8
  %3 = load ptr, ptr %2, align 8
  %4 = call noundef i32 @_ZNK4llvm8DenseMapIjjNS_12DenseMapInfoIjvEENS_6detail12DenseMapPairIjjEEE13getNumBucketsEv(ptr noundef nonnull align 8 dereferenceable(20) %3)
  ret i32 %4
}

; Function Attrs: mustprogress nounwind uwtable
define linkonce_odr hidden noundef ptr @_ZNK4llvm12DenseMapBaseINS_8DenseMapIjjNS_12DenseMapInfoIjvEENS_6detail12DenseMapPairIjjEEEEjjS3_S6_E10getBucketsEv(ptr noundef nonnull align 1 dereferenceable(1) %0) #0 comdat align 2 {
  %2 = alloca ptr, align 8
  store ptr %0, ptr %2, align 8
  %3 = load ptr, ptr %2, align 8
  %4 = call noundef ptr @_ZNK4llvm8DenseMapIjjNS_12DenseMapInfoIjvEENS_6detail12DenseMapPairIjjEEE10getBucketsEv(ptr noundef nonnull align 8 dereferenceable(20) %3)
  ret ptr %4
}

; Function Attrs: mustprogress nounwind uwtable
define linkonce_odr hidden noundef nonnull align 4 dereferenceable(4) ptr @_ZN4llvm6detail12DenseMapPairIjjE9getSecondEv(ptr noundef nonnull align 4 dereferenceable(8) %0) #0 comdat align 2 {
  %2 = alloca ptr, align 8
  store ptr %0, ptr %2, align 8
  %3 = load ptr, ptr %2, align 8
  %4 = getelementptr inbounds nuw %"struct.std::pair", ptr %3, i32 0, i32 1
  ret ptr %4
}

; Function Attrs: mustprogress nounwind uwtable
define linkonce_odr hidden noundef nonnull align 4 dereferenceable(4) ptr @_ZN4llvm6detail12DenseMapPairIjjE8getFirstEv(ptr noundef nonnull align 4 dereferenceable(8) %0) #0 comdat align 2 {
  %2 = alloca ptr, align 8
  store ptr %0, ptr %2, align 8
  %3 = load ptr, ptr %2, align 8
  %4 = getelementptr inbounds nuw %"struct.std::pair", ptr %3, i32 0, i32 0
  ret ptr %4
}

; Function Attrs: mustprogress nounwind uwtable
define linkonce_odr hidden noundef zeroext i1 @_ZNK4llvm12DenseMapBaseINS_8DenseMapIjjNS_12DenseMapInfoIjvEENS_6detail12DenseMapPairIjjEEEEjjS3_S6_E15LookupBucketForIjEEbRKT_RPKS6_(ptr noundef nonnull align 1 dereferenceable(1) %0, ptr noundef nonnull align 4 dereferenceable(4) %1, ptr noundef nonnull align 8 dereferenceable(8) %2) #0 comdat align 2 {
  %4 = alloca i1, align 1
  %5 = alloca ptr, align 8
  %6 = alloca ptr, align 8
  %7 = alloca ptr, align 8
  %8 = alloca ptr, align 8
  %9 = alloca i32, align 4
  %10 = alloca ptr, align 8
  %11 = alloca i32, align 4
  %12 = alloca i32, align 4
  %13 = alloca i32, align 4
  %14 = alloca i32, align 4
  %15 = alloca ptr, align 8
  store ptr %0, ptr %5, align 8
  store ptr %1, ptr %6, align 8
  store ptr %2, ptr %7, align 8
  %16 = load ptr, ptr %5, align 8
  %17 = call noundef ptr @_ZNK4llvm12DenseMapBaseINS_8DenseMapIjjNS_12DenseMapInfoIjvEENS_6detail12DenseMapPairIjjEEEEjjS3_S6_E10getBucketsEv(ptr noundef nonnull align 1 dereferenceable(1) %16)
  store ptr %17, ptr %8, align 8
  %18 = call noundef i32 @_ZNK4llvm12DenseMapBaseINS_8DenseMapIjjNS_12DenseMapInfoIjvEENS_6detail12DenseMapPairIjjEEEEjjS3_S6_E13getNumBucketsEv(ptr noundef nonnull align 1 dereferenceable(1) %16)
  store i32 %18, ptr %9, align 4
  %19 = load i32, ptr %9, align 4
  %20 = icmp eq i32 %19, 0
  br i1 %20, label %21, label %23

21:                                               ; preds = %3
  %22 = load ptr, ptr %7, align 8
  store ptr null, ptr %22, align 8
  store i1 false, ptr %4, align 1
  br label %75

23:                                               ; preds = %3
  store ptr null, ptr %10, align 8
  %24 = call noundef i32 @_ZN4llvm12DenseMapBaseINS_8DenseMapIjjNS_12DenseMapInfoIjvEENS_6detail12DenseMapPairIjjEEEEjjS3_S6_E11getEmptyKeyEv()
  store i32 %24, ptr %11, align 4
  %25 = call noundef i32 @_ZN4llvm12DenseMapBaseINS_8DenseMapIjjNS_12DenseMapInfoIjvEENS_6detail12DenseMapPairIjjEEEEjjS3_S6_E15getTombstoneKeyEv()
  store i32 %25, ptr %12, align 4
  %26 = load ptr, ptr %6, align 8
  %27 = call noundef i32 @_ZN4llvm12DenseMapBaseINS_8DenseMapIjjNS_12DenseMapInfoIjvEENS_6detail12DenseMapPairIjjEEEEjjS3_S6_E12getHashValueERKj(ptr noundef nonnull align 4 dereferenceable(4) %26)
  %28 = load i32, ptr %9, align 4
  %29 = sub i32 %28, 1
  %30 = and i32 %27, %29
  store i32 %30, ptr %13, align 4
  store i32 1, ptr %14, align 4
  br label %31

31:                                               ; preds = %66, %23
  %32 = load ptr, ptr %8, align 8
  %33 = load i32, ptr %13, align 4
  %34 = zext i32 %33 to i64
  %35 = getelementptr inbounds %"struct.llvm::detail::DenseMapPair", ptr %32, i64 %34
  store ptr %35, ptr %15, align 8
  %36 = load ptr, ptr %6, align 8
  %37 = load ptr, ptr %15, align 8
  %38 = call noundef nonnull align 4 dereferenceable(4) ptr @_ZNK4llvm6detail12DenseMapPairIjjE8getFirstEv(ptr noundef nonnull align 4 dereferenceable(8) %37)
  %39 = call noundef zeroext i1 @_ZN4llvm12DenseMapInfoIjvE7isEqualERKjS3_(ptr noundef nonnull align 4 dereferenceable(4) %36, ptr noundef nonnull align 4 dereferenceable(4) %38)
  br i1 %39, label %40, label %43

40:                                               ; preds = %31
  %41 = load ptr, ptr %15, align 8
  %42 = load ptr, ptr %7, align 8
  store ptr %41, ptr %42, align 8
  store i1 true, ptr %4, align 1
  br label %75

43:                                               ; preds = %31
  %44 = load ptr, ptr %15, align 8
  %45 = call noundef nonnull align 4 dereferenceable(4) ptr @_ZNK4llvm6detail12DenseMapPairIjjE8getFirstEv(ptr noundef nonnull align 4 dereferenceable(8) %44)
  %46 = call noundef zeroext i1 @_ZN4llvm12DenseMapInfoIjvE7isEqualERKjS3_(ptr noundef nonnull align 4 dereferenceable(4) %45, ptr noundef nonnull align 4 dereferenceable(4) %11)
  br i1 %46, label %47, label %57

47:                                               ; preds = %43
  %48 = load ptr, ptr %10, align 8
  %49 = icmp ne ptr %48, null
  br i1 %49, label %50, label %52

50:                                               ; preds = %47
  %51 = load ptr, ptr %10, align 8
  br label %54

52:                                               ; preds = %47
  %53 = load ptr, ptr %15, align 8
  br label %54

54:                                               ; preds = %52, %50
  %55 = phi ptr [ %51, %50 ], [ %53, %52 ]
  %56 = load ptr, ptr %7, align 8
  store ptr %55, ptr %56, align 8
  store i1 false, ptr %4, align 1
  br label %75

57:                                               ; preds = %43
  %58 = load ptr, ptr %15, align 8
  %59 = call noundef nonnull align 4 dereferenceable(4) ptr @_ZNK4llvm6detail12DenseMapPairIjjE8getFirstEv(ptr noundef nonnull align 4 dereferenceable(8) %58)
  %60 = call noundef zeroext i1 @_ZN4llvm12DenseMapInfoIjvE7isEqualERKjS3_(ptr noundef nonnull align 4 dereferenceable(4) %59, ptr noundef nonnull align 4 dereferenceable(4) %12)
  br i1 %60, label %61, label %66

61:                                               ; preds = %57
  %62 = load ptr, ptr %10, align 8
  %63 = icmp ne ptr %62, null
  br i1 %63, label %66, label %64

64:                                               ; preds = %61
  %65 = load ptr, ptr %15, align 8
  store ptr %65, ptr %10, align 8
  br label %66

66:                                               ; preds = %64, %61, %57
  %67 = load i32, ptr %14, align 4
  %68 = add i32 %67, 1
  store i32 %68, ptr %14, align 4
  %69 = load i32, ptr %13, align 4
  %70 = add i32 %69, %67
  store i32 %70, ptr %13, align 4
  %71 = load i32, ptr %9, align 4
  %72 = sub i32 %71, 1
  %73 = load i32, ptr %13, align 4
  %74 = and i32 %73, %72
  store i32 %74, ptr %13, align 4
  br label %31, !llvm.loop !35

75:                                               ; preds = %54, %40, %21
  %76 = load i1, ptr %4, align 1
  ret i1 %76
}

; Function Attrs: mustprogress nounwind uwtable
define linkonce_odr hidden noundef ptr @_ZN4llvm12DenseMapBaseINS_8DenseMapIjjNS_12DenseMapInfoIjvEENS_6detail12DenseMapPairIjjEEEEjjS3_S6_E16InsertIntoBucketIRKjJEEEPS6_SC_OT_DpOT0_(ptr noundef nonnull align 1 dereferenceable(1) %0, ptr noundef %1, ptr noundef nonnull align 4 dereferenceable(4) %2) #0 comdat align 2 {
  %4 = alloca ptr, align 8
  %5 = alloca ptr, align 8
  %6 = alloca ptr, align 8
  store ptr %0, ptr %4, align 8
  store ptr %1, ptr %5, align 8
  store ptr %2, ptr %6, align 8
  %7 = load ptr, ptr %4, align 8
  %8 = load ptr, ptr %6, align 8
  %9 = load ptr, ptr %6, align 8
  %10 = load ptr, ptr %5, align 8
  %11 = call noundef ptr @_ZN4llvm12DenseMapBaseINS_8DenseMapIjjNS_12DenseMapInfoIjvEENS_6detail12DenseMapPairIjjEEEEjjS3_S6_E20InsertIntoBucketImplIjEEPS6_RKjRKT_SA_(ptr noundef nonnull align 1 dereferenceable(1) %7, ptr noundef nonnull align 4 dereferenceable(4) %8, ptr noundef nonnull align 4 dereferenceable(4) %9, ptr noundef %10)
  store ptr %11, ptr %5, align 8
  %12 = load ptr, ptr %6, align 8
  %13 = load i32, ptr %12, align 4
  %14 = load ptr, ptr %5, align 8
  %15 = call noundef nonnull align 4 dereferenceable(4) ptr @_ZN4llvm6detail12DenseMapPairIjjE8getFirstEv(ptr noundef nonnull align 4 dereferenceable(8) %14)
  store i32 %13, ptr %15, align 4
  %16 = load ptr, ptr %5, align 8
  %17 = call noundef nonnull align 4 dereferenceable(4) ptr @_ZN4llvm6detail12DenseMapPairIjjE9getSecondEv(ptr noundef nonnull align 4 dereferenceable(8) %16)
  store i32 0, ptr %17, align 4
  %18 = load ptr, ptr %5, align 8
  ret ptr %18
}

; Function Attrs: mustprogress nounwind uwtable
define linkonce_odr hidden noundef zeroext i1 @_ZN4llvm12DenseMapBaseINS_8DenseMapIjjNS_12DenseMapInfoIjvEENS_6detail12DenseMapPairIjjEEEEjjS3_S6_E15LookupBucketForIjEEbRKT_RPS6_(ptr noundef nonnull align 1 dereferenceable(1) %0, ptr noundef nonnull align 4 dereferenceable(4) %1, ptr noundef nonnull align 8 dereferenceable(8) %2) #0 comdat align 2 {
  %4 = alloca ptr, align 8
  %5 = alloca ptr, align 8
  %6 = alloca ptr, align 8
  %7 = alloca ptr, align 8
  %8 = alloca i8, align 1
  store ptr %0, ptr %4, align 8
  store ptr %1, ptr %5, align 8
  store ptr %2, ptr %6, align 8
  %9 = load ptr, ptr %4, align 8
  %10 = load ptr, ptr %5, align 8
  %11 = call noundef zeroext i1 @_ZNK4llvm12DenseMapBaseINS_8DenseMapIjjNS_12DenseMapInfoIjvEENS_6detail12DenseMapPairIjjEEEEjjS3_S6_E15LookupBucketForIjEEbRKT_RPKS6_(ptr noundef nonnull align 1 dereferenceable(1) %9, ptr noundef nonnull align 4 dereferenceable(4) %10, ptr noundef nonnull align 8 dereferenceable(8) %7)
  %12 = zext i1 %11 to i8
  store i8 %12, ptr %8, align 1
  %13 = load ptr, ptr %7, align 8
  %14 = load ptr, ptr %6, align 8
  store ptr %13, ptr %14, align 8
  %15 = load i8, ptr %8, align 1
  %16 = trunc i8 %15 to i1
  ret i1 %16
}

; Function Attrs: mustprogress nounwind uwtable
define linkonce_odr hidden noundef nonnull align 4 dereferenceable(8) ptr @_ZN4llvm12DenseMapBaseINS_8DenseMapIjjNS_12DenseMapInfoIjvEENS_6detail12DenseMapPairIjjEEEEjjS3_S6_E16FindAndConstructERKj(ptr noundef nonnull align 1 dereferenceable(1) %0, ptr noundef nonnull align 4 dereferenceable(4) %1) #0 comdat align 2 {
  %3 = alloca ptr, align 8
  %4 = alloca ptr, align 8
  %5 = alloca ptr, align 8
  %6 = alloca ptr, align 8
  store ptr %0, ptr %4, align 8
  store ptr %1, ptr %5, align 8
  %7 = load ptr, ptr %4, align 8
  %8 = load ptr, ptr %5, align 8
  %9 = call noundef zeroext i1 @_ZN4llvm12DenseMapBaseINS_8DenseMapIjjNS_12DenseMapInfoIjvEENS_6detail12DenseMapPairIjjEEEEjjS3_S6_E15LookupBucketForIjEEbRKT_RPS6_(ptr noundef nonnull align 1 dereferenceable(1) %7, ptr noundef nonnull align 4 dereferenceable(4) %8, ptr noundef nonnull align 8 dereferenceable(8) %6)
  br i1 %9, label %10, label %12

10:                                               ; preds = %2
  %11 = load ptr, ptr %6, align 8
  store ptr %11, ptr %3, align 8
  br label %16

12:                                               ; preds = %2
  %13 = load ptr, ptr %6, align 8
  %14 = load ptr, ptr %5, align 8
  %15 = call noundef ptr @_ZN4llvm12DenseMapBaseINS_8DenseMapIjjNS_12DenseMapInfoIjvEENS_6detail12DenseMapPairIjjEEEEjjS3_S6_E16InsertIntoBucketIRKjJEEEPS6_SC_OT_DpOT0_(ptr noundef nonnull align 1 dereferenceable(1) %7, ptr noundef %13, ptr noundef nonnull align 4 dereferenceable(4) %14)
  store ptr %15, ptr %3, align 8
  br label %16

16:                                               ; preds = %12, %10
  %17 = load ptr, ptr %3, align 8
  ret ptr %17
}

; Function Attrs: mustprogress nounwind uwtable
define linkonce_odr hidden void @_ZNSt10error_codeC2Ev(ptr noundef nonnull align 8 dereferenceable(16) %0) unnamed_addr #0 comdat align 2 {
  %2 = alloca ptr, align 8
  store ptr %0, ptr %2, align 8
  %3 = load ptr, ptr %2, align 8
  %4 = getelementptr inbounds nuw %"class.std::error_code", ptr %3, i32 0, i32 0
  store i32 0, ptr %4, align 8
  %5 = getelementptr inbounds nuw %"class.std::error_code", ptr %3, i32 0, i32 1
  %6 = call noundef nonnull align 8 dereferenceable(8) ptr @_ZNSt3_V215system_categoryEv() #18
  store ptr %6, ptr %5, align 8
  ret void
}

; Function Attrs: mustprogress nounwind uwtable
define linkonce_odr hidden noundef nonnull align 4 dereferenceable(4) ptr @_ZN4llvm12DenseMapBaseINS_8DenseMapIjjNS_12DenseMapInfoIjvEENS_6detail12DenseMapPairIjjEEEEjjS3_S6_EixERKj(ptr noundef nonnull align 1 dereferenceable(1) %0, ptr noundef nonnull align 4 dereferenceable(4) %1) #0 comdat align 2 {
  %3 = alloca ptr, align 8
  %4 = alloca ptr, align 8
  store ptr %0, ptr %3, align 8
  store ptr %1, ptr %4, align 8
  %5 = load ptr, ptr %3, align 8
  %6 = load ptr, ptr %4, align 8
  %7 = call noundef nonnull align 4 dereferenceable(8) ptr @_ZN4llvm12DenseMapBaseINS_8DenseMapIjjNS_12DenseMapInfoIjvEENS_6detail12DenseMapPairIjjEEEEjjS3_S6_E16FindAndConstructERKj(ptr noundef nonnull align 1 dereferenceable(1) %5, ptr noundef nonnull align 4 dereferenceable(4) %6)
  %8 = getelementptr inbounds nuw %"struct.std::pair", ptr %7, i32 0, i32 1
  ret ptr %8
}

; Function Attrs: mustprogress nounwind uwtable
define internal { i32, ptr } @_ZN12_GLOBAL__N_112SDiagsMerger19visitCategoryRecordEjN4llvm9StringRefE(ptr noundef nonnull align 8 dereferenceable(88) %0, i32 noundef %1, ptr %2, i64 %3) unnamed_addr #0 align 2 {
  %5 = alloca %"class.std::error_code", align 8
  %6 = alloca %"class.llvm::StringRef", align 8
  %7 = alloca ptr, align 8
  %8 = alloca i32, align 4
  %9 = getelementptr inbounds nuw { ptr, i64 }, ptr %6, i32 0, i32 0
  store ptr %2, ptr %9, align 8
  %10 = getelementptr inbounds nuw { ptr, i64 }, ptr %6, i32 0, i32 1
  store i64 %3, ptr %10, align 8
  store ptr %0, ptr %7, align 8
  store i32 %1, ptr %8, align 4
  %11 = load ptr, ptr %7, align 8
  %12 = getelementptr inbounds nuw %"class.(anonymous namespace)::SDiagsMerger", ptr %11, i32 0, i32 1
  %13 = load ptr, ptr %12, align 8
  %14 = load i32, ptr %8, align 4
  %15 = call noundef i32 @_ZN12_GLOBAL__N_112SDiagsWriter15getEmitCategoryEj(ptr noundef nonnull align 8 dereferenceable(48) %13, i32 noundef %14)
  %16 = getelementptr inbounds nuw %"class.(anonymous namespace)::SDiagsMerger", ptr %11, i32 0, i32 3
  %17 = call noundef nonnull align 4 dereferenceable(4) ptr @_ZN4llvm12DenseMapBaseINS_8DenseMapIjjNS_12DenseMapInfoIjvEENS_6detail12DenseMapPairIjjEEEEjjS3_S6_EixERKj(ptr noundef nonnull align 1 dereferenceable(1) %16, ptr noundef nonnull align 4 dereferenceable(4) %8)
  store i32 %15, ptr %17, align 4
  call void @_ZNSt10error_codeC2Ev(ptr noundef nonnull align 8 dereferenceable(16) %5) #13
  %18 = load { i32, ptr }, ptr %5, align 8
  ret { i32, ptr } %18
}