; Function Attrs: mustprogress nounwind uwtable
define internal { i32, ptr } @_ZN12_GLOBAL__N_112SDiagsMerger19visitCategoryRecordEjN4llvm9StringRefE(ptr noundef nonnull align 8 dereferenceable(88) %0, i32 noundef %1, ptr readnone captures(none) %2, i64 %3) unnamed_addr #0 align 2 {
  %5 = alloca i32, align 4
  store i32 %1, ptr %5, align 4
  %6 = getelementptr inbounds nuw i8, ptr %0, i64 8
  %7 = load ptr, ptr %6, align 8
  %8 = tail call fastcc noundef i32 @_ZN12_GLOBAL__N_112SDiagsWriter15getEmitCategoryEj(ptr noundef nonnull align 8 dereferenceable(48) %7, i32 noundef %1)
  %9 = getelementptr inbounds nuw i8, ptr %0, i64 40
  %10 = load ptr, ptr %9, align 8
  %11 = getelementptr inbounds nuw i8, ptr %0, i64 56
  %12 = load i32, ptr %11, align 8
  %13 = icmp eq i32 %12, 0
  br i1 %13, label %_ZN4llvm12DenseMapBaseINS_8DenseMapIjjNS_12DenseMapInfoIjvEENS_6detail12DenseMapPairIjjEEEEjjS3_S6_E15LookupBucketForIjEEbRKT_RPS6_.exit.i.i, label %14

14:                                               ; preds = %4
  %15 = mul i32 %1, 37
  %16 = add i32 %12, -1
  %.02532.i.i.i.i = and i32 %15, %16
  %17 = zext i32 %.02532.i.i.i.i to i64
  %18 = getelementptr inbounds nuw %"struct.llvm::detail::DenseMapPair", ptr %10, i64 %17
  %19 = load i32, ptr %18, align 4
  %20 = icmp eq i32 %1, %19
  br i1 %20, label %_ZN4llvm12DenseMapBaseINS_8DenseMapIjjNS_12DenseMapInfoIjvEENS_6detail12DenseMapPairIjjEEEEjjS3_S6_EixERKj.exit, label %.lr.ph.i.i.i.i

.lr.ph.i.i.i.i:                                   ; preds = %14, %26
  %21 = phi i32 [ %33, %26 ], [ %19, %14 ]
  %22 = phi ptr [ %32, %26 ], [ %18, %14 ]
  %.02535.i.i.i.i = phi i32 [ %.025.i.i.i.i, %26 ], [ %.02532.i.i.i.i, %14 ]
  %.02434.i.i.i.i = phi i32 [ %29, %26 ], [ 1, %14 ]
  %.02633.i.i.i.i = phi ptr [ %spec.select.i.i.i.i, %26 ], [ null, %14 ]
  %23 = icmp eq i32 %21, -1
  br i1 %23, label %24, label %26

24:                                               ; preds = %.lr.ph.i.i.i.i
  %.not.i.i.i.i = icmp eq ptr %.02633.i.i.i.i, null
  %25 = select i1 %.not.i.i.i.i, ptr %22, ptr %.02633.i.i.i.i
  br label %_ZN4llvm12DenseMapBaseINS_8DenseMapIjjNS_12DenseMapInfoIjvEENS_6detail12DenseMapPairIjjEEEEjjS3_S6_E15LookupBucketForIjEEbRKT_RPS6_.exit.i.i

26:                                               ; preds = %.lr.ph.i.i.i.i
  %27 = icmp eq i32 %21, -2
  %28 = icmp eq ptr %.02633.i.i.i.i, null
  %or.cond.not.i.i.i.i = select i1 %27, i1 %28, i1 false
  %spec.select.i.i.i.i = select i1 %or.cond.not.i.i.i.i, ptr %22, ptr %.02633.i.i.i.i
  %29 = add i32 %.02434.i.i.i.i, 1
  %30 = add i32 %.02434.i.i.i.i, %.02535.i.i.i.i
  %.025.i.i.i.i = and i32 %30, %16
  %31 = zext i32 %.025.i.i.i.i to i64
  %32 = getelementptr inbounds nuw %"struct.llvm::detail::DenseMapPair", ptr %10, i64 %31
  %33 = load i32, ptr %32, align 4
  %34 = icmp eq i32 %1, %33
  br i1 %34, label %_ZN4llvm12DenseMapBaseINS_8DenseMapIjjNS_12DenseMapInfoIjvEENS_6detail12DenseMapPairIjjEEEEjjS3_S6_EixERKj.exit, label %.lr.ph.i.i.i.i, !llvm.loop !30

_ZN4llvm12DenseMapBaseINS_8DenseMapIjjNS_12DenseMapInfoIjvEENS_6detail12DenseMapPairIjjEEEEjjS3_S6_E15LookupBucketForIjEEbRKT_RPS6_.exit.i.i: ; preds = %24, %4
  %.sink.i.i.i.i = phi ptr [ %25, %24 ], [ null, %4 ]
  %35 = call noundef ptr @_ZN4llvm12DenseMapBaseINS_8DenseMapIjjNS_12DenseMapInfoIjvEENS_6detail12DenseMapPairIjjEEEEjjS3_S6_E20InsertIntoBucketImplIjEEPS6_RKjRKT_SA_(ptr noundef nonnull align 1 dereferenceable(1) %9, ptr noundef nonnull align 4 dereferenceable(4) %5, ptr noundef nonnull align 4 dereferenceable(4) %5, ptr noundef %.sink.i.i.i.i)
  %36 = load i32, ptr %5, align 4
  store i32 %36, ptr %35, align 4
  %37 = getelementptr inbounds nuw i8, ptr %35, i64 4
  store i32 0, ptr %37, align 4
  br label %_ZN4llvm12DenseMapBaseINS_8DenseMapIjjNS_12DenseMapInfoIjvEENS_6detail12DenseMapPairIjjEEEEjjS3_S6_EixERKj.exit

_ZN4llvm12DenseMapBaseINS_8DenseMapIjjNS_12DenseMapInfoIjvEENS_6detail12DenseMapPairIjjEEEEjjS3_S6_EixERKj.exit: ; preds = %26, %14, %_ZN4llvm12DenseMapBaseINS_8DenseMapIjjNS_12DenseMapInfoIjvEENS_6detail12DenseMapPairIjjEEEEjjS3_S6_E15LookupBucketForIjEEbRKT_RPS6_.exit.i.i
  %.0.i.i = phi ptr [ %35, %_ZN4llvm12DenseMapBaseINS_8DenseMapIjjNS_12DenseMapInfoIjvEENS_6detail12DenseMapPairIjjEEEEjjS3_S6_E15LookupBucketForIjEEbRKT_RPS6_.exit.i.i ], [ %18, %14 ], [ %32, %26 ]
  %38 = getelementptr inbounds nuw i8, ptr %.0.i.i, i64 4
  store i32 %8, ptr %38, align 4
  %39 = tail call noundef nonnull align 8 dereferenceable(8) ptr @_ZNSt3_V215system_categoryEv() #20
  %.fca.1.insert = insertvalue { i32, ptr } { i32 0, ptr poison }, ptr %39, 1
  ret { i32, ptr } %.fca.1.insert
}